; Function Attrs: mustprogress nounwind uwtable
define hidden void @_ZN29jvmtiDeferredLocalVariableSetD2Ev(ptr nocapture noundef nonnull readonly align 8 dereferenceable(41) %0) unnamed_addr #0 align 2 {
  %2 = getelementptr inbounds i8, ptr %0, i64 32
  %3 = load ptr, ptr %2, align 8
  %4 = load i32, ptr %3, align 4
  %5 = icmp sgt i32 %4, 0
  br i1 %5, label %.lr.ph, label %._crit_edge

.lr.ph:                                           ; preds = %1, %14
  %6 = phi i32 [ %15, %14 ], [ %4, %1 ]
  %7 = phi ptr [ %16, %14 ], [ %3, %1 ]
  %indvars.iv = phi i64 [ %indvars.iv.next, %14 ], [ 0, %1 ]
  %8 = getelementptr inbounds i8, ptr %7, i64 8
  %9 = load ptr, ptr %8, align 8
  %10 = getelementptr inbounds ptr, ptr %9, i64 %indvars.iv
  %11 = load ptr, ptr %10, align 8
  %12 = icmp eq ptr %11, null
  br i1 %12, label %14, label %13

13:                                               ; preds = %.lr.ph
  tail call void @_Z8FreeHeapPv(ptr noundef nonnull %11) #11
  %.pre = load ptr, ptr %2, align 8
  %.pre8 = load i32, ptr %.pre, align 4
  br label %14

14:                                               ; preds = %.lr.ph, %13
  %15 = phi i32 [ %6, %.lr.ph ], [ %.pre8, %13 ]
  %16 = phi ptr [ %7, %.lr.ph ], [ %.pre, %13 ]
  %indvars.iv.next = add nuw nsw i64 %indvars.iv, 1
  %17 = sext i32 %15 to i64
  %18 = icmp slt i64 %indvars.iv.next, %17
  br i1 %18, label %.lr.ph, label %._crit_edge, !llvm.loop !21

._crit_edge:                                      ; preds = %14, %1
  %.lcssa = phi ptr [ %3, %1 ], [ %16, %14 ]
  %19 = getelementptr inbounds i8, ptr %.lcssa, i64 16
  %20 = load i64, ptr %19, align 8
  %21 = and i64 %20, 1
  %.not.i = icmp eq i64 %21, 0
  br i1 %.not.i, label %23, label %22

22:                                               ; preds = %._crit_edge
  store i32 0, ptr %.lcssa, align 4
  tail call void @_ZN26GrowableArrayWithAllocatorIP26jvmtiDeferredLocalVariable13GrowableArrayIS1_EE13shrink_to_fitEv(ptr noundef nonnull align 8 dereferenceable(16) %.lcssa)
  br label %23

23:                                               ; preds = %22, %._crit_edge
  tail call void @_ZN6AnyObjdlEPv(ptr noundef nonnull %.lcssa) #11
  ret void
}